libukui-menu.so.1 libukui-menu1 #MINVER#
* Build-Depends-Package: libukui-menu-dev
 _ZN10QByteArrayD1Ev@Base 0.9.0
 _ZN10QByteArrayD2Ev@Base 0.9.0
 _ZN10QDBusReplyI15QDBusObjectPathED1Ev@Base 0.9.0
 _ZN10QDBusReplyI15QDBusObjectPathED2Ev@Base 0.9.0
 _ZN10QDBusReplyI8QVariantED1Ev@Base 0.9.0
 _ZN10QDBusReplyI8QVariantED2Ev@Base 0.9.0
 _ZN17QtMetaTypePrivate23QMetaTypeFunctionHelperI12QDBusVariantLb1EE8DestructEPv@Base 0.9.0
 _ZN17QtMetaTypePrivate23QMetaTypeFunctionHelperI12QDBusVariantLb1EE9ConstructEPvPKv@Base 0.9.0
 _ZN17QtMetaTypePrivate23QMetaTypeFunctionHelperI15QDBusObjectPathLb1EE8DestructEPv@Base 0.9.0
 _ZN17QtMetaTypePrivate23QMetaTypeFunctionHelperI15QDBusObjectPathLb1EE9ConstructEPvPKv@Base 0.9.0
 _ZN17UkuiMenuInterface12get_app_execE7QString@Base 0.9.0
 _ZN17UkuiMenuInterface12get_app_iconE7QString@Base 0.9.0
 _ZN17UkuiMenuInterface12get_app_nameE7QString@Base 0.9.0
 _ZN17UkuiMenuInterface12get_app_typeE7QString@Base 0.9.0
 _ZN17UkuiMenuInterface13appInfoVectorE@Base 0.9.0
 _ZN17UkuiMenuInterface13get_user_iconEv@Base 0.9.0
 _ZN17UkuiMenuInterface13get_user_nameEv@Base 0.9.0
 _ZN17UkuiMenuInterface13sort_app_nameEv@Base 0.9.0
 _ZN17UkuiMenuInterface15desktopfpVectorE@Base 0.9.0
 _ZN17UkuiMenuInterface15get_app_commentE7QString@Base 0.9.0
 _ZN17UkuiMenuInterface18get_app_categoriesE7QString@Base 0.9.0
 _ZN17UkuiMenuInterface19get_app_name_pinyinE7QString@Base 0.9.0
 _ZN17UkuiMenuInterface20get_app_english_nameE7QString@Base 0.9.0
 _ZN17UkuiMenuInterface21create_appinfo_vectorEv@Base 0.9.0
 _ZN17UkuiMenuInterface21get_desktop_file_pathEv@Base 0.9.0
 _ZN17UkuiMenuInterface21recursive_search_fileERK7QString@Base 0.9.0
 _ZN17UkuiMenuInterface23matching_app_categoriesE7QString11QStringList@Base 0.9.0
 _ZN17UkuiMenuInterface28get_desktop_path_by_app_nameE7QString@Base 0.9.0
 _ZN17UkuiMenuInterface29get_alphabetic_classificationEv@Base 0.9.0
 _ZN17UkuiMenuInterface29get_functional_classificationEv@Base 0.9.0
 _ZN17UkuiMenuInterface31get_specified_category_app_listE7QString@Base 0.9.0
 _ZN17UkuiMenuInterface36get_desktop_path_by_app_english_nameE7QString@Base 0.9.0
 _ZN17UkuiMenuInterfaceC1Ev@Base 0.9.0
 _ZN17UkuiMenuInterfaceC2Ev@Base 0.9.0
 _ZN17UkuiMenuInterfaceD1Ev@Base 0.9.0
 _ZN17UkuiMenuInterfaceD2Ev@Base 0.9.0
 _ZN19ChineseLetterHelper10GetPinyinsERK7QString@Base 0.9.0
 _ZN19ChineseLetterHelper14GetFirstLetterERK7QString@Base 0.9.0
 _ZN19ChineseLetterHelper15GetFirstLettersERK7QString@Base 0.9.0
 _ZN19ChineseLetterHelper18GetFirstLettersAllERK7QString@Base 0.9.0
 _ZN19ChineseLetterHelper2InEwww@Base 0.9.0
 _ZN19ChineseLetterHelper7ConvertEi@Base 0.9.0
 _ZN19ChineseLetterHelper9GetPinyinEi@Base 0.9.0
 _ZN19ChineseLetterHelperC1Ev@Base 0.9.0
 _ZN19ChineseLetterHelperC2Ev@Base 0.9.0
 _ZN5QListI7QStringE13detach_helperEi@Base 0.9.0
 _ZN5QListI7QStringE18detach_helper_growEii@Base 0.9.0
 _ZN5QListI7QStringE5clearEv@Base 0.9.0
 _ZN5QListI7QStringE6appendERKS0_@Base 0.9.0
 _ZN5QListI7QStringE9removeAllERKS0_@Base 0.9.0
 _ZN5QListI7QStringEC1ERKS1_@Base 0.9.0
 _ZN5QListI7QStringEC2ERKS1_@Base 0.9.0
 _ZN5QListI7QStringED1Ev@Base 0.9.0
 _ZN5QListI7QStringED2Ev@Base 0.9.0
 _ZN5QListI7QStringEpLERKS1_@Base 0.9.0
 _ZN5QListI9QFileInfoE13detach_helperEi@Base 0.9.0
 _ZN5QListI9QFileInfoE9removeAllERKS0_@Base 0.9.0
 _ZN5QListI9QFileInfoED1Ev@Base 0.9.0
 _ZN5QListI9QFileInfoED2Ev@Base 0.9.0
 _ZN7QStringD1Ev@Base 0.9.0
 _ZN7QStringD2Ev@Base 0.9.0
 _ZN7QStringaSEPKc@Base 0.9.0
 _ZN7QVectorI11QStringListE11reallocDataEii6QFlagsIN10QArrayData16AllocationOptionEE@Base 0.9.0
 _ZN7QVectorI11QStringListE6appendERKS0_@Base 0.9.0
 _ZN7QVectorI11QStringListED1Ev@Base 0.9.0
 _ZN7QVectorI11QStringListED2Ev@Base 0.9.0
 _ZN7QVectorI7QStringE11reallocDataEii6QFlagsIN10QArrayData16AllocationOptionEE@Base 0.9.0
 _ZN7QVectorI7QStringE6appendERKS0_@Base 0.9.0
 _ZN7QVectorI7QStringED1Ev@Base 0.9.0
 _ZN7QVectorI7QStringED2Ev@Base 0.9.0
 _ZSt11__make_heapIN5QListI7QStringE8iteratorEN9__gnu_cxx5__ops15_Iter_comp_iterI9QCollatorEEEvT_S9_RT0_@Base 0.9.0
 _ZSt13__adjust_heapIN5QListI7QStringE8iteratorExS1_N9__gnu_cxx5__ops15_Iter_comp_iterI9QCollatorEEEvT_T0_SA_T1_T2_@Base 0.9.0
 _ZSt16__insertion_sortIN5QListI7QStringE8iteratorEN9__gnu_cxx5__ops15_Iter_comp_iterI9QCollatorEEEvT_S9_T0_@Base 0.9.0
 _ZSt16__introsort_loopIN5QListI7QStringE8iteratorEiN9__gnu_cxx5__ops15_Iter_comp_iterI9QCollatorEEEvT_S9_T0_T1_@Base 0.9.0
 _ZSt22__final_insertion_sortIN5QListI7QStringE8iteratorEN9__gnu_cxx5__ops15_Iter_comp_iterI9QCollatorEEEvT_S9_T0_@Base 0.9.0
 _ZSt25__unguarded_linear_insertIN5QListI7QStringE8iteratorEN9__gnu_cxx5__ops14_Val_comp_iterI9QCollatorEEEvT_T0_@Base 0.9.0
 _ZZN11QMetaTypeIdI12QDBusVariantE14qt_metatype_idEvE11metatype_id@Base 0.9.0
 _ZZN11QMetaTypeIdI15QDBusObjectPathE14qt_metatype_idEvE11metatype_id@Base 0.9.0
